target datalayout = "e-m:e-p270:32:32-p271:32:32-p272:64:64-i64:64-i128:128-f80:128-n8:16:32:64-S128"
target triple = "x86_64-pc-linux-gnu"

; Function Attrs: mustprogress nounwind uwtable
define i32 @u_getUnicodeProperties_77(i32 noundef %0, i32 noundef %1) #0 {
  %3 = alloca i32, align 4
  %4 = alloca i32, align 4
  %5 = alloca i32, align 4
  %6 = alloca i16, align 2
  store i32 %0, ptr %4, align 4, !tbaa !3
  store i32 %1, ptr %5, align 4, !tbaa !3
  %7 = load i32, ptr %5, align 4, !tbaa !3
  %8 = icmp sge i32 %7, 3
  br i1 %8, label %9, label %10

9:                                                ; preds = %2
  store i32 0, ptr %3, align 4
  br label %94

10:                                               ; preds = %2
  call void @llvm.lifetime.start.p0(i64 2, ptr %6) #6
  %11 = load ptr, ptr @_ZL16propsVectorsTrie, align 8, !tbaa !7
  %12 = load i32, ptr %4, align 4, !tbaa !3
  %13 = icmp ult i32 %12, 55296
  br i1 %13, label %14, label %27

14:                                               ; preds = %10
  %15 = load ptr, ptr @_ZL16propsVectorsTrie, align 8, !tbaa !7
  %16 = load i32, ptr %4, align 4, !tbaa !3
  %17 = ashr i32 %16, 5
  %18 = add nsw i32 0, %17
  %19 = sext i32 %18 to i64
  %20 = getelementptr inbounds i16, ptr %15, i64 %19
  %21 = load i16, ptr %20, align 2, !tbaa !14
  %22 = zext i16 %21 to i32
  %23 = shl i32 %22, 2
  %24 = load i32, ptr %4, align 4, !tbaa !3
  %25 = and i32 %24, 31
  %26 = add nsw i32 %23, %25
  br label %82

27:                                               ; preds = %10
  %28 = load i32, ptr %4, align 4, !tbaa !3
  %29 = icmp ule i32 %28, 65535
  br i1 %29, label %30, label %46

30:                                               ; preds = %27
  %31 = load ptr, ptr @_ZL16propsVectorsTrie, align 8, !tbaa !7
  %32 = load i32, ptr %4, align 4, !tbaa !3
  %33 = icmp sle i32 %32, 56319
  %34 = select i1 %33, i32 320, i32 0
  %35 = load i32, ptr %4, align 4, !tbaa !3
  %36 = ashr i32 %35, 5
  %37 = add nsw i32 %34, %36
  %38 = sext i32 %37 to i64
  %39 = getelementptr inbounds i16, ptr %31, i64 %38
  %40 = load i16, ptr %39, align 2, !tbaa !14
  %41 = zext i16 %40 to i32
  %42 = shl i32 %41, 2
  %43 = load i32, ptr %4, align 4, !tbaa !3
  %44 = and i32 %43, 31
  %45 = add nsw i32 %42, %44
  br label %80

46:                                               ; preds = %27
  %47 = load i32, ptr %4, align 4, !tbaa !3
  %48 = icmp ugt i32 %47, 1114111
  br i1 %48, label %49, label %50

49:                                               ; preds = %46
  br label %78

50:                                               ; preds = %46
  %51 = load i32, ptr %4, align 4, !tbaa !3
  %52 = icmp sge i32 %51, 1114112
  br i1 %52, label %53, label %54

53:                                               ; preds = %50
  br label %76

54:                                               ; preds = %50
  %55 = load ptr, ptr @_ZL16propsVectorsTrie, align 8, !tbaa !7
  %56 = load ptr, ptr @_ZL16propsVectorsTrie, align 8, !tbaa !7
  %57 = load i32, ptr %4, align 4, !tbaa !3
  %58 = ashr i32 %57, 11
  %59 = add nsw i32 2080, %58
  %60 = sext i32 %59 to i64
  %61 = getelementptr inbounds i16, ptr %56, i64 %60
  %62 = load i16, ptr %61, align 2, !tbaa !14
  %63 = zext i16 %62 to i32
  %64 = load i32, ptr %4, align 4, !tbaa !3
  %65 = ashr i32 %64, 5
  %66 = and i32 %65, 63
  %67 = add nsw i32 %63, %66
  %68 = sext i32 %67 to i64
  %69 = getelementptr inbounds i16, ptr %55, i64 %68
  %70 = load i16, ptr %69, align 2, !tbaa !14
  %71 = zext i16 %70 to i32
  %72 = shl i32 %71, 2
  %73 = load i32, ptr %4, align 4, !tbaa !3
  %74 = and i32 %73, 31
  %75 = add nsw i32 %72, %74
  br label %76

76:                                               ; preds = %54, %53
  %77 = phi i32 [ 32320, %53 ], [ %75, %54 ]
  br label %78

78:                                               ; preds = %76, %49
  %79 = phi i32 [ 5364, %49 ], [ %77, %76 ]
  br label %80

80:                                               ; preds = %78, %30
  %81 = phi i32 [ %45, %30 ], [ %79, %78 ]
  br label %82

82:                                               ; preds = %80, %14
  %83 = phi i32 [ %26, %14 ], [ %81, %80 ]
  %84 = sext i32 %83 to i64
  %85 = getelementptr inbounds i16, ptr %11, i64 %84
  %86 = load i16, ptr %85, align 2, !tbaa !14
  store i16 %86, ptr %6, align 2, !tbaa !14
  %87 = load i16, ptr %6, align 2, !tbaa !14
  %88 = zext i16 %87 to i32
  %89 = load i32, ptr %5, align 4, !tbaa !3
  %90 = add nsw i32 %88, %89
  %91 = sext i32 %90 to i64
  %92 = getelementptr inbounds [6426 x i32], ptr @_ZL12propsVectors, i64 0, i64 %91
  %93 = load i32, ptr %92, align 4, !tbaa !3
  store i32 %93, ptr %3, align 4
  call void @llvm.lifetime.end.p0(i64 2, ptr %6) #6
  br label %94

94:                                               ; preds = %82, %9
  %95 = load i32, ptr %3, align 4
  ret i32 %95
}

; Function Attrs: inlinehint mustprogress nounwind uwtable
define internal noundef signext i8 @_ZL9U_FAILURE10UErrorCode(i32 noundef %0) #5 {
  %2 = alloca i32, align 4
  store i32 %0, ptr %2, align 4, !tbaa !26
  %3 = load i32, ptr %2, align 4, !tbaa !26
  %4 = icmp sgt i32 %3, 0
  %5 = zext i1 %4 to i8
  ret i8 %5
}

; Function Attrs: mustprogress uwtable
define i32 @uscript_getScript_77(i32 noundef %0, ptr noundef %1) #2 {
  %3 = alloca i32, align 4
  %4 = alloca i32, align 4
  %5 = alloca ptr, align 8
  %6 = alloca i32, align 4
  %7 = alloca i32, align 4
  %8 = alloca i32, align 4
  store i32 %0, ptr %4, align 4, !tbaa !3
  store ptr %1, ptr %5, align 8, !tbaa !15
  %9 = load ptr, ptr %5, align 8, !tbaa !15
  %10 = icmp eq ptr %9, null
  br i1 %10, label %16, label %11

11:                                               ; preds = %2
  %12 = load ptr, ptr %5, align 8, !tbaa !15
  %13 = load i32, ptr %12, align 4, !tbaa !26
  %14 = call noundef signext i8 @_ZL9U_FAILURE10UErrorCode(i32 noundef %13)
  %15 = icmp ne i8 %14, 0
  br i1 %15, label %16, label %17

16:                                               ; preds = %11, %2
  store i32 -1, ptr %3, align 4
  br label %47

17:                                               ; preds = %11
  %18 = load i32, ptr %4, align 4, !tbaa !3
  %19 = icmp ugt i32 %18, 1114111
  br i1 %19, label %20, label %22

20:                                               ; preds = %17
  %21 = load ptr, ptr %5, align 8, !tbaa !15
  store i32 1, ptr %21, align 4, !tbaa !26
  store i32 -1, ptr %3, align 4
  br label %47

22:                                               ; preds = %17
  call void @llvm.lifetime.start.p0(i64 4, ptr %6) #6
  %23 = load i32, ptr %4, align 4, !tbaa !3
  %24 = call i32 @u_getUnicodeProperties_77(i32 noundef %23, i32 noundef 0)
  %25 = and i32 %24, 4095
  store i32 %25, ptr %6, align 4, !tbaa !3
  call void @llvm.lifetime.start.p0(i64 4, ptr %7) #6
  %26 = load i32, ptr %6, align 4, !tbaa !3
  %27 = and i32 %26, 1023
  store i32 %27, ptr %7, align 4, !tbaa !3
  %28 = load i32, ptr %6, align 4, !tbaa !3
  %29 = icmp ult i32 %28, 1024
  br i1 %29, label %30, label %32

30:                                               ; preds = %22
  %31 = load i32, ptr %7, align 4, !tbaa !3
  store i32 %31, ptr %3, align 4
  store i32 1, ptr %8, align 4
  br label %46

32:                                               ; preds = %22
  %33 = load i32, ptr %6, align 4, !tbaa !3
  %34 = icmp ult i32 %33, 2048
  br i1 %34, label %35, label %36

35:                                               ; preds = %32
  store i32 0, ptr %3, align 4
  store i32 1, ptr %8, align 4
  br label %46

36:                                               ; preds = %32
  %37 = load i32, ptr %6, align 4, !tbaa !3
  %38 = icmp ult i32 %37, 3072
  br i1 %38, label %39, label %40

39:                                               ; preds = %36
  store i32 1, ptr %3, align 4
  store i32 1, ptr %8, align 4
  br label %46

40:                                               ; preds = %36
  %41 = load i32, ptr %7, align 4, !tbaa !3
  %42 = zext i32 %41 to i64
  %43 = getelementptr inbounds nuw [526 x i16], ptr @_ZL16scriptExtensions, i64 0, i64 %42
  %44 = load i16, ptr %43, align 2, !tbaa !14
  %45 = zext i16 %44 to i32
  store i32 %45, ptr %3, align 4
  store i32 1, ptr %8, align 4
  br label %46

46:                                               ; preds = %40, %39, %35, %30
  call void @llvm.lifetime.end.p0(i64 4, ptr %7) #6
  call void @llvm.lifetime.end.p0(i64 4, ptr %6) #6
  br label %47

47:                                               ; preds = %46, %20, %16
  %48 = load i32, ptr %3, align 4
  ret i32 %48
}