; Function Attrs: mustprogress nofree norecurse nosync nounwind willreturn memory(argmem: readwrite) uwtable
define range(i32 -1, 65536) i32 @uscript_getScript_77(i32 noundef %0, ptr noundef %1) local_unnamed_addr #5 {
  %3 = icmp eq ptr %1, null
  br i1 %3, label %56, label %4

4:                                                ; preds = %2
  %5 = load i32, ptr %1, align 4, !tbaa !16
  %6 = icmp slt i32 %5, 1
  br i1 %6, label %7, label %56

7:                                                ; preds = %4
  %8 = icmp ugt i32 %0, 1114111
  br i1 %8, label %9, label %10

9:                                                ; preds = %7
  store i32 1, ptr %1, align 4, !tbaa !16
  br label %56

10:                                               ; preds = %7
  %11 = icmp samesign ult i32 %0, 55296
  br i1 %11, label %12, label %14

12:                                               ; preds = %10
  %13 = lshr i32 %0, 5
  br label %u_getUnicodeProperties_77.exit

14:                                               ; preds = %10
  %15 = icmp samesign ult i32 %0, 65536
  br i1 %15, label %16, label %21

16:                                               ; preds = %14
  %17 = icmp samesign ult i32 %0, 56320
  %18 = select i1 %17, i32 320, i32 0
  %19 = lshr i32 %0, 5
  %20 = add nuw nsw i32 %18, %19
  br label %u_getUnicodeProperties_77.exit

21:                                               ; preds = %14
  %22 = lshr i32 %0, 11
  %23 = zext nneg i32 %22 to i64
  %24 = getelementptr inbounds nuw i16, ptr @_ZL22propsVectorsTrie_index, i64 %23
  %25 = getelementptr inbounds nuw i8, ptr %24, i64 4160
  %26 = load i16, ptr %25, align 2, !tbaa !3
  %27 = zext i16 %26 to i32
  %28 = lshr i32 %0, 5
  %29 = and i32 %28, 63
  %30 = add nuw nsw i32 %29, %27
  br label %u_getUnicodeProperties_77.exit

u_getUnicodeProperties_77.exit:                   ; preds = %12, %16, %21
  %.sink21.i = phi i32 [ %20, %16 ], [ %30, %21 ], [ %13, %12 ]
  %31 = zext nneg i32 %.sink21.i to i64
  %32 = getelementptr inbounds nuw i16, ptr @_ZL22propsVectorsTrie_index, i64 %31
  %33 = load i16, ptr %32, align 2, !tbaa !3
  %34 = zext i16 %33 to i32
  %35 = shl nuw nsw i32 %34, 2
  %36 = and i32 %0, 31
  %37 = add nuw nsw i32 %35, %36
  %38 = zext nneg i32 %37 to i64
  %39 = getelementptr inbounds nuw i16, ptr @_ZL22propsVectorsTrie_index, i64 %38
  %40 = load i16, ptr %39, align 2, !tbaa !3
  %41 = zext i16 %40 to i64
  %42 = getelementptr inbounds nuw [6426 x i32], ptr @_ZL12propsVectors, i64 0, i64 %41
  %43 = load i32, ptr %42, align 4, !tbaa !11
  %44 = and i32 %43, 4095
  %45 = and i32 %43, 1023
  %46 = icmp samesign ult i32 %44, 1024
  br i1 %46, label %56, label %47

47:                                               ; preds = %u_getUnicodeProperties_77.exit
  %48 = icmp samesign ult i32 %44, 2048
  br i1 %48, label %56, label %49

49:                                               ; preds = %47
  %50 = icmp samesign ult i32 %44, 3072
  br i1 %50, label %56, label %51

51:                                               ; preds = %49
  %52 = zext nneg i32 %45 to i64
  %53 = getelementptr inbounds nuw [526 x i16], ptr @_ZL16scriptExtensions, i64 0, i64 %52
  %54 = load i16, ptr %53, align 2, !tbaa !3
  %55 = zext i16 %54 to i32
  br label %56

56:                                               ; preds = %51, %u_getUnicodeProperties_77.exit, %47, %49, %2, %4, %9
  %.0 = phi i32 [ -1, %9 ], [ -1, %4 ], [ -1, %2 ], [ %55, %51 ], [ %45, %u_getUnicodeProperties_77.exit ], [ 0, %47 ], [ 1, %49 ]
  ret i32 %.0
}